target datalayout = "e-m:e-p270:32:32-p271:32:32-p272:64:64-i64:64-i128:128-f80:128-n8:16:32:64-S128"
target triple = "x86_64-unknown-linux-gnu"

%"struct.node::AssertionInfo" = type { ptr, ptr, ptr }
%"class.v8::IndirectHandleBase" = type { ptr }
%"class.node::BaseObject" = type { %"class.node::MemoryRetainer", %"class.v8::Global", ptr, ptr }
%"class.node::MemoryRetainer" = type { ptr }
%"class.v8::Global" = type { %"class.v8::PersistentBase" }
%"class.v8::PersistentBase" = type { %"class.v8::IndirectHandleBase" }
%"struct.node::BaseObject::PointerData" = type { i32, i32, i8, i8, ptr }
%class.anon = type { i8 }

@_ZZN4node10BaseObject12pointer_dataEvE4args = internal constant %"struct.node::AssertionInfo" { ptr @.str.11, ptr @.str.12, ptr @.str.13 }, align 8

; Function Attrs: mustprogress nounwind uwtable
define linkonce_odr dso_local void @_ZN4node10BaseObject11PointerDataC2Ev(ptr noundef nonnull align 8 dereferenceable(24) %this) unnamed_addr #4 comdat align 2 {
entry:
  %this.addr = alloca ptr, align 8
  store ptr %this, ptr %this.addr, align 8
  %this1 = load ptr, ptr %this.addr, align 8
  %strong_ptr_count = getelementptr inbounds %"struct.node::BaseObject::PointerData", ptr %this1, i32 0, i32 0
  store i32 0, ptr %strong_ptr_count, align 8
  %weak_ptr_count = getelementptr inbounds %"struct.node::BaseObject::PointerData", ptr %this1, i32 0, i32 1
  store i32 0, ptr %weak_ptr_count, align 4
  %wants_weak_jsobj = getelementptr inbounds %"struct.node::BaseObject::PointerData", ptr %this1, i32 0, i32 2
  store i8 0, ptr %wants_weak_jsobj, align 8
  %is_detached = getelementptr inbounds %"struct.node::BaseObject::PointerData", ptr %this1, i32 0, i32 3
  store i8 0, ptr %is_detached, align 1
  %self = getelementptr inbounds %"struct.node::BaseObject::PointerData", ptr %this1, i32 0, i32 4
  store ptr null, ptr %self, align 8
  ret void
}

; Function Attrs: mustprogress nounwind uwtable
define internal noundef ptr @"_ZZN4node10BaseObject8MakeWeakEvENK3$_0cvPFvRKN2v816WeakCallbackInfoIS0_EEEEv"(ptr noundef nonnull align 1 dereferenceable(1) %this) #4 align 2 {
entry:
  %this.addr = alloca ptr, align 8
  store ptr %this, ptr %this.addr, align 8
  ret ptr @"_ZZN4node10BaseObject8MakeWeakEvEN3$_08__invokeERKN2v816WeakCallbackInfoIS0_EE"
}

; Function Attrs: mustprogress nounwind uwtable
define dso_local noundef ptr @_ZN4node10BaseObject12pointer_dataEv(ptr noundef nonnull align 8 dereferenceable(32) %this) #4 align 2 {
entry:
  %obj.addr.i = alloca ptr, align 8
  %addr.i = alloca ptr, align 8
  %this.addr.i12 = alloca ptr, align 8
  %this.addr.i.i = alloca ptr, align 8
  %retval.i = alloca i1, align 1
  %this.addr.i = alloca ptr, align 8
  %this.addr = alloca ptr, align 8
  %metadata = alloca ptr, align 8
  store ptr %this, ptr %this.addr, align 8
  %this1 = load ptr, ptr %this.addr, align 8
  %call = call noundef zeroext i1 @_ZNK4node10BaseObject16has_pointer_dataEv(ptr noundef nonnull align 8 dereferenceable(32) %this1)
  br i1 %call, label %if.end, label %if.then

if.then:                                          ; preds = %entry
  %call2 = call noalias noundef nonnull ptr @_Znwm(i64 noundef 24) #14
  call void @llvm.memset.p0.i64(ptr align 16 %call2, i8 0, i64 24, i1 false)
  call void @_ZN4node10BaseObject11PointerDataC2Ev(ptr noundef nonnull align 8 dereferenceable(24) %call2) #3
  store ptr %call2, ptr %metadata, align 8
  %persistent_handle_ = getelementptr inbounds %"class.node::BaseObject", ptr %this1, i32 0, i32 1
  store ptr %persistent_handle_, ptr %this.addr.i, align 8
  %this1.i = load ptr, ptr %this.addr.i, align 8
  store ptr %this1.i, ptr %this.addr.i.i, align 8
  %this1.i.i = load ptr, ptr %this.addr.i.i, align 8
  %0 = load ptr, ptr %this1.i.i, align 8
  %cmp.i.i = icmp eq ptr %0, null
  br i1 %cmp.i.i, label %if.then.i, label %if.end.i

if.then.i:                                        ; preds = %if.then
  store i1 false, ptr %retval.i, align 1
  br label %_ZNK2v814PersistentBaseINS_6ObjectEE6IsWeakEv.exit

if.end.i:                                         ; preds = %if.then
  store ptr %this1.i, ptr %this.addr.i12, align 8
  %this1.i13 = load ptr, ptr %this.addr.i12, align 8
  %1 = load ptr, ptr %this1.i13, align 8
  store ptr %1, ptr %obj.addr.i, align 8
  %2 = load ptr, ptr %obj.addr.i, align 8
  %add.ptr.i = getelementptr inbounds i8, ptr %2, i64 11
  store ptr %add.ptr.i, ptr %addr.i, align 8
  %3 = load ptr, ptr %addr.i, align 8
  %4 = load i8, ptr %3, align 1
  %conv.i14 = zext i8 %4 to i32
  %and.i = and i32 %conv.i14, 3
  %conv1.i = trunc i32 %and.i to i8
  %conv.i = zext i8 %conv1.i to i32
  %cmp.i = icmp eq i32 %conv.i, 2
  store i1 %cmp.i, ptr %retval.i, align 1
  br label %_ZNK2v814PersistentBaseINS_6ObjectEE6IsWeakEv.exit

_ZNK2v814PersistentBaseINS_6ObjectEE6IsWeakEv.exit: ; preds = %if.end.i, %if.then.i
  %5 = load i1, ptr %retval.i, align 1
  %6 = load ptr, ptr %metadata, align 8
  %wants_weak_jsobj = getelementptr inbounds %"struct.node::BaseObject::PointerData", ptr %6, i32 0, i32 2
  %frombool = zext i1 %5 to i8
  store i8 %frombool, ptr %wants_weak_jsobj, align 8
  %7 = load ptr, ptr %metadata, align 8
  %self = getelementptr inbounds %"struct.node::BaseObject::PointerData", ptr %7, i32 0, i32 4
  store ptr %this1, ptr %self, align 8
  %8 = load ptr, ptr %metadata, align 8
  %pointer_data_ = getelementptr inbounds %"class.node::BaseObject", ptr %this1, i32 0, i32 3
  store ptr %8, ptr %pointer_data_, align 8
  br label %if.end

if.end:                                           ; preds = %_ZNK2v814PersistentBaseINS_6ObjectEE6IsWeakEv.exit, %entry
  br label %do.body

do.body:                                          ; preds = %if.end
  %call4 = call noundef zeroext i1 @_ZNK4node10BaseObject16has_pointer_dataEv(ptr noundef nonnull align 8 dereferenceable(32) %this1)
  %lnot = xor i1 %call4, true
  %lnot5 = xor i1 %lnot, true
  %lnot6 = xor i1 %lnot5, true
  br i1 %lnot6, label %if.then7, label %if.end9

if.then7:                                         ; preds = %do.body
  br label %do.body8

do.body8:                                         ; preds = %if.then7
  call void @_ZN4node6AssertERKNS_13AssertionInfoE(ptr noundef nonnull align 8 dereferenceable(24) @_ZZN4node10BaseObject12pointer_dataEvE4args)
  call void @abort() #12
  unreachable

do.end:                                           ; No predecessors!
  br label %if.end9

if.end9:                                          ; preds = %do.end, %do.body
  br label %do.end10

do.end10:                                         ; preds = %if.end9
  %pointer_data_11 = getelementptr inbounds %"class.node::BaseObject", ptr %this1, i32 0, i32 3
  %9 = load ptr, ptr %pointer_data_11, align 8
  ret ptr %9
}

; Function Attrs: mustprogress nounwind uwtable
define linkonce_odr dso_local noundef zeroext i1 @_ZNK4node10BaseObject16has_pointer_dataEv(ptr noundef nonnull align 8 dereferenceable(32) %this) #4 comdat align 2 {
entry:
  %this.addr = alloca ptr, align 8
  store ptr %this, ptr %this.addr, align 8
  %this1 = load ptr, ptr %this.addr, align 8
  %pointer_data_ = getelementptr inbounds %"class.node::BaseObject", ptr %this1, i32 0, i32 3
  %0 = load ptr, ptr %pointer_data_, align 8
  %cmp = icmp ne ptr %0, null
  ret i1 %cmp
}

; Function Attrs: mustprogress nounwind uwtable
define dso_local void @_ZN4node10BaseObject8MakeWeakEv(ptr noundef nonnull align 8 dereferenceable(32) %this) #4 align 2 {
entry:
  %this.addr.i7 = alloca ptr, align 8
  %this.addr.i = alloca ptr, align 8
  %parameter.addr.i = alloca ptr, align 8
  %callback.addr.i = alloca ptr, align 8
  %type.addr.i = alloca i32, align 4
  %this.addr = alloca ptr, align 8
  %ref.tmp = alloca %class.anon, align 1
  store ptr %this, ptr %this.addr, align 8
  %this1 = load ptr, ptr %this.addr, align 8
  %call = call noundef zeroext i1 @_ZNK4node10BaseObject16has_pointer_dataEv(ptr noundef nonnull align 8 dereferenceable(32) %this1)
  br i1 %call, label %if.then, label %if.end5

if.then:                                          ; preds = %entry
  %call2 = call noundef ptr @_ZN4node10BaseObject12pointer_dataEv(ptr noundef nonnull align 8 dereferenceable(32) %this1)
  %wants_weak_jsobj = getelementptr inbounds %"struct.node::BaseObject::PointerData", ptr %call2, i32 0, i32 2
  store i8 1, ptr %wants_weak_jsobj, align 8
  %call3 = call noundef ptr @_ZN4node10BaseObject12pointer_dataEv(ptr noundef nonnull align 8 dereferenceable(32) %this1)
  %strong_ptr_count = getelementptr inbounds %"struct.node::BaseObject::PointerData", ptr %call3, i32 0, i32 0
  %0 = load i32, ptr %strong_ptr_count, align 8
  %cmp = icmp ugt i32 %0, 0
  br i1 %cmp, label %if.then4, label %if.end

if.then4:                                         ; preds = %if.then
  br label %return

if.end:                                           ; preds = %if.then
  br label %if.end5

if.end5:                                          ; preds = %if.end, %entry
  %persistent_handle_ = getelementptr inbounds %"class.node::BaseObject", ptr %this1, i32 0, i32 1
  %call6 = call noundef ptr @"_ZZN4node10BaseObject8MakeWeakEvENK3$_0cvPFvRKN2v816WeakCallbackInfoIS0_EEEEv"(ptr noundef nonnull align 1 dereferenceable(1) %ref.tmp) #3
  store ptr %persistent_handle_, ptr %this.addr.i, align 8
  store ptr %this1, ptr %parameter.addr.i, align 8
  store ptr %call6, ptr %callback.addr.i, align 8
  store i32 0, ptr %type.addr.i, align 4
  %this1.i = load ptr, ptr %this.addr.i, align 8
  store ptr %this1.i, ptr %this.addr.i7, align 8
  %this1.i8 = load ptr, ptr %this.addr.i7, align 8
  %1 = load ptr, ptr %this1.i8, align 8
  %2 = load ptr, ptr %parameter.addr.i, align 8
  %3 = load ptr, ptr %callback.addr.i, align 8
  %4 = load i32, ptr %type.addr.i, align 4
  call void @_ZN2v812api_internal8MakeWeakEPmPvPFvRKNS_16WeakCallbackInfoIvEEENS_16WeakCallbackTypeE(ptr noundef %1, ptr noundef %2, ptr noundef %3, i32 noundef %4) #3
  br label %return

return:                                           ; preds = %if.end5, %if.then4
  ret void
}