; Function Attrs: mustprogress nounwind uwtable
define dso_local void @_ZN4node10BaseObject8MakeWeakEv(ptr noundef nonnull align 8 dereferenceable(32) %this) local_unnamed_addr #3 align 2 {
entry:
  %pointer_data_.i = getelementptr inbounds i8, ptr %this, i64 24
  %0 = load ptr, ptr %pointer_data_.i, align 8
  %cmp.i.not = icmp eq ptr %0, null
  br i1 %cmp.i.not, label %if.end5, label %_ZN4node10BaseObject12pointer_dataEv.exit

_ZN4node10BaseObject12pointer_dataEv.exit:        ; preds = %entry
  %wants_weak_jsobj = getelementptr inbounds i8, ptr %0, i64 8
  store i8 1, ptr %wants_weak_jsobj, align 8
  %1 = load ptr, ptr %pointer_data_.i, align 8
  %cmp.i3.not.i2 = icmp eq ptr %1, null
  br i1 %cmp.i3.not.i2, label %if.then.i3, label %_ZN4node10BaseObject12pointer_dataEv.exit14

if.then.i3:                                       ; preds = %_ZN4node10BaseObject12pointer_dataEv.exit
  %call2.i4 = tail call noalias noundef nonnull dereferenceable(24) ptr @_Znwm(i64 noundef 24) #20
  %self.i.i5 = getelementptr inbounds i8, ptr %call2.i4, i64 16
  %persistent_handle_.i6 = getelementptr inbounds i8, ptr %this, i64 8
  tail call void @llvm.memset.p0.i64(ptr noundef nonnull align 8 dereferenceable(16) %call2.i4, i8 0, i64 16, i1 false)
  %2 = load ptr, ptr %persistent_handle_.i6, align 8
  %cmp.i.i.i7 = icmp eq ptr %2, null
  br i1 %cmp.i.i.i7, label %_ZN4node10BaseObject12pointer_dataEv.exit14.thread, label %if.end.i.i8

if.end.i.i8:                                      ; preds = %if.then.i3
  %add.ptr.i.i9 = getelementptr inbounds i8, ptr %2, i64 11
  %3 = load i8, ptr %add.ptr.i.i9, align 1
  %4 = and i8 %3, 3
  %cmp.i.i10 = icmp eq i8 %4, 2
  %5 = zext i1 %cmp.i.i10 to i8
  br label %_ZN4node10BaseObject12pointer_dataEv.exit14.thread

_ZN4node10BaseObject12pointer_dataEv.exit14.thread: ; preds = %if.then.i3, %if.end.i.i8
  %retval.i.0.i12 = phi i8 [ %5, %if.end.i.i8 ], [ 0, %if.then.i3 ]
  %wants_weak_jsobj.i13 = getelementptr inbounds i8, ptr %call2.i4, i64 8
  store i8 %retval.i.0.i12, ptr %wants_weak_jsobj.i13, align 8
  store ptr %this, ptr %self.i.i5, align 8
  store ptr %call2.i4, ptr %pointer_data_.i, align 8
  br label %if.end5

_ZN4node10BaseObject12pointer_dataEv.exit14:      ; preds = %_ZN4node10BaseObject12pointer_dataEv.exit
  %.pre = load i32, ptr %1, align 8
  %6 = icmp eq i32 %.pre, 0
  br i1 %6, label %if.end5, label %return

if.end5:                                          ; preds = %_ZN4node10BaseObject12pointer_dataEv.exit14.thread, %_ZN4node10BaseObject12pointer_dataEv.exit14, %entry
  %persistent_handle_ = getelementptr inbounds i8, ptr %this, i64 8
  %7 = load ptr, ptr %persistent_handle_, align 8
  tail call void @_ZN2v812api_internal8MakeWeakEPmPvPFvRKNS_16WeakCallbackInfoIvEEENS_16WeakCallbackTypeE(ptr noundef %7, ptr noundef nonnull %this, ptr noundef nonnull @"_ZZN4node10BaseObject8MakeWeakEvEN3$_08__invokeERKN2v816WeakCallbackInfoIS0_EE", i32 noundef 0) #17
  br label %return

return:                                           ; preds = %_ZN4node10BaseObject12pointer_dataEv.exit14, %if.end5
  ret void
}